target datalayout = "e-m:e-p270:32:32-p271:32:32-p272:64:64-i64:64-i128:128-f80:128-n8:16:32:64-S128"
target triple = "x86_64-pc-linux-gnu"

%"class.open3d::(anonymous namespace)::GlobalColorMapSingleton" = type { %"class.std::shared_ptr" }
%"class.std::shared_ptr" = type { %"class.std::__shared_ptr" }
%"class.std::__shared_ptr" = type { ptr, %"class.std::__shared_count" }
%"class.std::__shared_count" = type { ptr }

@_ZZN6open3d12_GLOBAL__N_123GlobalColorMapSingleton11GetInstanceEvE9singleton = internal global %"class.open3d::(anonymous namespace)::GlobalColorMapSingleton" zeroinitializer, align 8
@_ZGVZN6open3d12_GLOBAL__N_123GlobalColorMapSingleton11GetInstanceEvE9singleton = internal global i64 0, align 8
@__dso_handle = external hidden global i8
@_ZTVN6open3d13visualization8ColorMapE = linkonce_odr unnamed_addr constant { [5 x ptr] } { [5 x ptr] [ptr null, ptr @_ZTIN6open3d13visualization8ColorMapE, ptr @_ZN6open3d13visualization8ColorMapD2Ev, ptr @_ZN6open3d13visualization8ColorMapD0Ev, ptr @__cxa_pure_virtual] }, comdat, align 8

; Function Attrs: mustprogress nounwind ssp uwtable
define linkonce_odr void @_ZN6open3d13visualization8ColorMapC2Ev(ptr noundef nonnull align 8 dereferenceable(8) %0) unnamed_addr #2 comdat align 2 {
  %2 = alloca ptr, align 8
  store ptr %0, ptr %2, align 8, !tbaa !17
  %3 = load ptr, ptr %2, align 8
  store ptr getelementptr inbounds inrange(-16, 24) ({ [5 x ptr] }, ptr @_ZTVN6open3d13visualization8ColorMapE, i32 0, i32 0, i32 2), ptr %3, align 8, !tbaa !205
  ret void
}

; Function Attrs: inlinehint mustprogress ssp uwtable
define linkonce_odr void @_ZN6open3d13visualization11ColorMapJetC2Ev(ptr noundef nonnull align 8 dereferenceable(8) %0) unnamed_addr #5 comdat align 2 {
  %2 = alloca ptr, align 8
  store ptr %0, ptr %2, align 8, !tbaa !4
  %3 = load ptr, ptr %2, align 8
  call void @_ZN6open3d13visualization8ColorMapC2Ev(ptr noundef nonnull align 8 dereferenceable(8) %3)
  store ptr getelementptr inbounds inrange(-16, 24) ({ [5 x ptr] }, ptr @_ZTVN6open3d13visualization11ColorMapJetE, i32 0, i32 0, i32 2), ptr %3, align 8, !tbaa !205
  ret void
}

; Function Attrs: inlinehint mustprogress nounwind ssp uwtable
define linkonce_odr void @_ZN6open3d13visualization11ColorMapHotC2Ev(ptr noundef nonnull align 8 dereferenceable(8) %0) unnamed_addr #0 comdat align 2 {
  %2 = alloca ptr, align 8
  store ptr %0, ptr %2, align 8, !tbaa !19
  %3 = load ptr, ptr %2, align 8
  call void @_ZN6open3d13visualization8ColorMapC2Ev(ptr noundef nonnull align 8 dereferenceable(8) %3)
  store ptr getelementptr inbounds inrange(-16, 24) ({ [5 x ptr] }, ptr @_ZTVN6open3d13visualization11ColorMapHotE, i32 0, i32 0, i32 2), ptr %3, align 8, !tbaa !205
  ret void
}

; Function Attrs: inlinehint mustprogress nounwind ssp uwtable
define linkonce_odr void @_ZN6open3d13visualization14ColorMapWinterC2Ev(ptr noundef nonnull align 8 dereferenceable(8) %0) unnamed_addr #0 comdat align 2 {
  %2 = alloca ptr, align 8
  store ptr %0, ptr %2, align 8, !tbaa !15
  %3 = load ptr, ptr %2, align 8
  call void @_ZN6open3d13visualization8ColorMapC2Ev(ptr noundef nonnull align 8 dereferenceable(8) %3)
  store ptr getelementptr inbounds inrange(-16, 24) ({ [5 x ptr] }, ptr @_ZTVN6open3d13visualization14ColorMapWinterE, i32 0, i32 0, i32 2), ptr %3, align 8, !tbaa !205
  ret void
}

; Function Attrs: inlinehint mustprogress nounwind ssp uwtable
define linkonce_odr void @_ZN6open3d13visualization14ColorMapSummerC2Ev(ptr noundef nonnull align 8 dereferenceable(8) %0) unnamed_addr #0 comdat align 2 {
  %2 = alloca ptr, align 8
  store ptr %0, ptr %2, align 8, !tbaa !13
  %3 = load ptr, ptr %2, align 8
  call void @_ZN6open3d13visualization8ColorMapC2Ev(ptr noundef nonnull align 8 dereferenceable(8) %3)
  store ptr getelementptr inbounds inrange(-16, 24) ({ [5 x ptr] }, ptr @_ZTVN6open3d13visualization14ColorMapSummerE, i32 0, i32 0, i32 2), ptr %3, align 8, !tbaa !205
  ret void
}

; Function Attrs: inlinehint mustprogress nounwind ssp uwtable
define linkonce_odr void @_ZN6open3d13visualization12ColorMapGrayC2Ev(ptr noundef nonnull align 8 dereferenceable(8) %0) unnamed_addr #0 comdat align 2 {
  %2 = alloca ptr, align 8
  store ptr %0, ptr %2, align 8, !tbaa !11
  %3 = load ptr, ptr %2, align 8
  call void @_ZN6open3d13visualization8ColorMapC2Ev(ptr noundef nonnull align 8 dereferenceable(8) %3)
  store ptr getelementptr inbounds inrange(-16, 24) ({ [5 x ptr] }, ptr @_ZTVN6open3d13visualization12ColorMapGrayE, i32 0, i32 0, i32 2), ptr %3, align 8, !tbaa !205
  ret void
}

; Function Attrs: mustprogress ssp uwtable
define internal noundef nonnull align 8 dereferenceable(16) ptr @_ZN6open3d12_GLOBAL__N_123GlobalColorMapSingleton11GetInstanceEv() #1 align 2 personality ptr @__gxx_personality_v0 {
  %1 = alloca ptr, align 8
  %2 = alloca i32, align 4
  %3 = load atomic i8, ptr @_ZGVZN6open3d12_GLOBAL__N_123GlobalColorMapSingleton11GetInstanceEvE9singleton acquire, align 8
  %4 = icmp eq i8 %3, 0
  br i1 %4, label %5, label %11, !prof !200

5:                                                ; preds = %0
  %6 = call i32 @__cxa_guard_acquire(ptr @_ZGVZN6open3d12_GLOBAL__N_123GlobalColorMapSingleton11GetInstanceEvE9singleton) #14
  %7 = icmp ne i32 %6, 0
  br i1 %7, label %8, label %11

8:                                                ; preds = %5
  invoke void @_ZN6open3d12_GLOBAL__N_123GlobalColorMapSingletonC2Ev(ptr noundef nonnull align 8 dereferenceable(16) @_ZZN6open3d12_GLOBAL__N_123GlobalColorMapSingleton11GetInstanceEvE9singleton)
          to label %9 unwind label %12

9:                                                ; preds = %8
  %10 = call i32 @__cxa_atexit(ptr @_ZN6open3d12_GLOBAL__N_123GlobalColorMapSingletonD2Ev, ptr @_ZZN6open3d12_GLOBAL__N_123GlobalColorMapSingleton11GetInstanceEvE9singleton, ptr @__dso_handle) #14
  call void @__cxa_guard_release(ptr @_ZGVZN6open3d12_GLOBAL__N_123GlobalColorMapSingleton11GetInstanceEvE9singleton) #14
  br label %11

11:                                               ; preds = %9, %5, %0
  ret ptr @_ZZN6open3d12_GLOBAL__N_123GlobalColorMapSingleton11GetInstanceEvE9singleton

12:                                               ; preds = %8
  %13 = landingpad { ptr, i32 }
          cleanup
  %14 = extractvalue { ptr, i32 } %13, 0
  store ptr %14, ptr %1, align 8
  %15 = extractvalue { ptr, i32 } %13, 1
  store i32 %15, ptr %2, align 4
  call void @__cxa_guard_abort(ptr @_ZGVZN6open3d12_GLOBAL__N_123GlobalColorMapSingleton11GetInstanceEvE9singleton) #14
  br label %16

16:                                               ; preds = %12
  %17 = load ptr, ptr %1, align 8
  %18 = load i32, ptr %2, align 4
  %19 = insertvalue { ptr, i32 } poison, ptr %17, 0
  %20 = insertvalue { ptr, i32 } %19, i32 %18, 1
  resume { ptr, i32 } %20
}

; Function Attrs: mustprogress ssp uwtable
define void @_ZN6open3d13visualization17SetGlobalColorMapENS0_8ColorMap14ColorMapOptionE(i32 noundef %0) #1 personality ptr @__gxx_personality_v0 {
  %2 = alloca i32, align 4
  %3 = alloca ptr, align 8
  %4 = alloca i32, align 4
  store i32 %0, ptr %2, align 4, !tbaa !258
  %5 = load i32, ptr %2, align 4, !tbaa !258
  switch i32 %5, label %43 [
    i32 0, label %6
    i32 2, label %15
    i32 3, label %24
    i32 4, label %33
    i32 1, label %42
  ]

6:                                                ; preds = %1
  %7 = call noundef nonnull align 8 dereferenceable(16) ptr @_ZN6open3d12_GLOBAL__N_123GlobalColorMapSingleton11GetInstanceEv()
  %8 = getelementptr inbounds nuw %"class.open3d::(anonymous namespace)::GlobalColorMapSingleton", ptr %7, i32 0, i32 0
  %9 = call noalias noundef nonnull ptr @_Znwm(i64 noundef 8) #25
  invoke void @_ZN6open3d13visualization12ColorMapGrayC2Ev(ptr noundef nonnull align 8 dereferenceable(8) %9)
          to label %10 unwind label %11

10:                                               ; preds = %6
  call void @_ZNSt12__shared_ptrIKN6open3d13visualization8ColorMapELN9__gnu_cxx12_Lock_policyE2EE5resetINS1_12ColorMapGrayEEENSt9enable_ifIXsr21__sp_is_constructibleIS3_T_EE5valueEvE4typeEPSA_(ptr noundef nonnull align 8 dereferenceable(16) %8, ptr noundef %9)
  br label %52

11:                                               ; preds = %6
  %12 = landingpad { ptr, i32 }
          cleanup
  %13 = extractvalue { ptr, i32 } %12, 0
  store ptr %13, ptr %3, align 8
  %14 = extractvalue { ptr, i32 } %12, 1
  store i32 %14, ptr %4, align 4
  call void @_ZdlPvm(ptr noundef %9, i64 noundef 8) #23
  br label %53

15:                                               ; preds = %1
  %16 = call noundef nonnull align 8 dereferenceable(16) ptr @_ZN6open3d12_GLOBAL__N_123GlobalColorMapSingleton11GetInstanceEv()
  %17 = getelementptr inbounds nuw %"class.open3d::(anonymous namespace)::GlobalColorMapSingleton", ptr %16, i32 0, i32 0
  %18 = call noalias noundef nonnull ptr @_Znwm(i64 noundef 8) #25
  invoke void @_ZN6open3d13visualization14ColorMapSummerC2Ev(ptr noundef nonnull align 8 dereferenceable(8) %18)
          to label %19 unwind label %20

19:                                               ; preds = %15
  call void @_ZNSt12__shared_ptrIKN6open3d13visualization8ColorMapELN9__gnu_cxx12_Lock_policyE2EE5resetINS1_14ColorMapSummerEEENSt9enable_ifIXsr21__sp_is_constructibleIS3_T_EE5valueEvE4typeEPSA_(ptr noundef nonnull align 8 dereferenceable(16) %17, ptr noundef %18)
  br label %52

20:                                               ; preds = %15
  %21 = landingpad { ptr, i32 }
          cleanup
  %22 = extractvalue { ptr, i32 } %21, 0
  store ptr %22, ptr %3, align 8
  %23 = extractvalue { ptr, i32 } %21, 1
  store i32 %23, ptr %4, align 4
  call void @_ZdlPvm(ptr noundef %18, i64 noundef 8) #23
  br label %53

24:                                               ; preds = %1
  %25 = call noundef nonnull align 8 dereferenceable(16) ptr @_ZN6open3d12_GLOBAL__N_123GlobalColorMapSingleton11GetInstanceEv()
  %26 = getelementptr inbounds nuw %"class.open3d::(anonymous namespace)::GlobalColorMapSingleton", ptr %25, i32 0, i32 0
  %27 = call noalias noundef nonnull ptr @_Znwm(i64 noundef 8) #25
  invoke void @_ZN6open3d13visualization14ColorMapWinterC2Ev(ptr noundef nonnull align 8 dereferenceable(8) %27)
          to label %28 unwind label %29

28:                                               ; preds = %24
  call void @_ZNSt12__shared_ptrIKN6open3d13visualization8ColorMapELN9__gnu_cxx12_Lock_policyE2EE5resetINS1_14ColorMapWinterEEENSt9enable_ifIXsr21__sp_is_constructibleIS3_T_EE5valueEvE4typeEPSA_(ptr noundef nonnull align 8 dereferenceable(16) %26, ptr noundef %27)
  br label %52

29:                                               ; preds = %24
  %30 = landingpad { ptr, i32 }
          cleanup
  %31 = extractvalue { ptr, i32 } %30, 0
  store ptr %31, ptr %3, align 8
  %32 = extractvalue { ptr, i32 } %30, 1
  store i32 %32, ptr %4, align 4
  call void @_ZdlPvm(ptr noundef %27, i64 noundef 8) #23
  br label %53

33:                                               ; preds = %1
  %34 = call noundef nonnull align 8 dereferenceable(16) ptr @_ZN6open3d12_GLOBAL__N_123GlobalColorMapSingleton11GetInstanceEv()
  %35 = getelementptr inbounds nuw %"class.open3d::(anonymous namespace)::GlobalColorMapSingleton", ptr %34, i32 0, i32 0
  %36 = call noalias noundef nonnull ptr @_Znwm(i64 noundef 8) #25
  invoke void @_ZN6open3d13visualization11ColorMapHotC2Ev(ptr noundef nonnull align 8 dereferenceable(8) %36)
          to label %37 unwind label %38

37:                                               ; preds = %33
  call void @_ZNSt12__shared_ptrIKN6open3d13visualization8ColorMapELN9__gnu_cxx12_Lock_policyE2EE5resetINS1_11ColorMapHotEEENSt9enable_ifIXsr21__sp_is_constructibleIS3_T_EE5valueEvE4typeEPSA_(ptr noundef nonnull align 8 dereferenceable(16) %35, ptr noundef %36)
  br label %52

38:                                               ; preds = %33
  %39 = landingpad { ptr, i32 }
          cleanup
  %40 = extractvalue { ptr, i32 } %39, 0
  store ptr %40, ptr %3, align 8
  %41 = extractvalue { ptr, i32 } %39, 1
  store i32 %41, ptr %4, align 4
  call void @_ZdlPvm(ptr noundef %36, i64 noundef 8) #23
  br label %53

42:                                               ; preds = %1
  br label %43

43:                                               ; preds = %1, %42
  %44 = call noundef nonnull align 8 dereferenceable(16) ptr @_ZN6open3d12_GLOBAL__N_123GlobalColorMapSingleton11GetInstanceEv()
  %45 = getelementptr inbounds nuw %"class.open3d::(anonymous namespace)::GlobalColorMapSingleton", ptr %44, i32 0, i32 0
  %46 = call noalias noundef nonnull ptr @_Znwm(i64 noundef 8) #25
  invoke void @_ZN6open3d13visualization11ColorMapJetC2Ev(ptr noundef nonnull align 8 dereferenceable(8) %46)
          to label %47 unwind label %48

47:                                               ; preds = %43
  call void @_ZNSt12__shared_ptrIKN6open3d13visualization8ColorMapELN9__gnu_cxx12_Lock_policyE2EE5resetINS1_11ColorMapJetEEENSt9enable_ifIXsr21__sp_is_constructibleIS3_T_EE5valueEvE4typeEPSA_(ptr noundef nonnull align 8 dereferenceable(16) %45, ptr noundef %46)
  br label %52

48:                                               ; preds = %43
  %49 = landingpad { ptr, i32 }
          cleanup
  %50 = extractvalue { ptr, i32 } %49, 0
  store ptr %50, ptr %3, align 8
  %51 = extractvalue { ptr, i32 } %49, 1
  store i32 %51, ptr %4, align 4
  call void @_ZdlPvm(ptr noundef %46, i64 noundef 8) #23
  br label %53

52:                                               ; preds = %47, %37, %28, %19, %10
  ret void

53:                                               ; preds = %48, %38, %29, %20, %11
  %54 = load ptr, ptr %3, align 8
  %55 = load i32, ptr %4, align 4
  %56 = insertvalue { ptr, i32 } poison, ptr %54, 0
  %57 = insertvalue { ptr, i32 } %56, i32 %55, 1
  resume { ptr, i32 } %57
}