; Function Attrs: mustprogress ssp uwtable
define void @_ZN6open3d13visualization17SetGlobalColorMapENS0_8ColorMap14ColorMapOptionE(i32 noundef %0) local_unnamed_addr #9 personality ptr @__gxx_personality_v0 {
  %2 = load atomic i8, ptr @_ZGVZN6open3d12_GLOBAL__N_123GlobalColorMapSingleton11GetInstanceEvE9singleton acquire, align 8
  %3 = icmp eq i8 %2, 0
  switch i32 %0, label %40 [
    i32 0, label %4
    i32 2, label %13
    i32 3, label %22
    i32 4, label %31
  ]

4:                                                ; preds = %1
  br i1 %3, label %5, label %_ZN6open3d12_GLOBAL__N_123GlobalColorMapSingleton11GetInstanceEv.exit, !prof !18

5:                                                ; preds = %4
  %6 = tail call i32 @__cxa_guard_acquire(ptr nonnull @_ZGVZN6open3d12_GLOBAL__N_123GlobalColorMapSingleton11GetInstanceEvE9singleton) #22
  %.not.i = icmp eq i32 %6, 0
  br i1 %.not.i, label %_ZN6open3d12_GLOBAL__N_123GlobalColorMapSingleton11GetInstanceEv.exit, label %7

7:                                                ; preds = %5
  invoke fastcc void @_ZN6open3d12_GLOBAL__N_123GlobalColorMapSingletonC2Ev()
          to label %8 unwind label %10

8:                                                ; preds = %7
  %9 = tail call i32 @__cxa_atexit(ptr nonnull @_ZN6open3d12_GLOBAL__N_123GlobalColorMapSingletonD2Ev, ptr nonnull @_ZZN6open3d12_GLOBAL__N_123GlobalColorMapSingleton11GetInstanceEvE9singleton, ptr nonnull @__dso_handle) #22
  tail call void @__cxa_guard_release(ptr nonnull @_ZGVZN6open3d12_GLOBAL__N_123GlobalColorMapSingleton11GetInstanceEvE9singleton) #22
  br label %_ZN6open3d12_GLOBAL__N_123GlobalColorMapSingleton11GetInstanceEv.exit

common.resume:                                    ; preds = %46, %37, %28, %19, %10
  %common.resume.op = phi { ptr, i32 } [ %11, %10 ], [ %20, %19 ], [ %29, %28 ], [ %38, %37 ], [ %47, %46 ]
  tail call void @__cxa_guard_abort(ptr nonnull @_ZGVZN6open3d12_GLOBAL__N_123GlobalColorMapSingleton11GetInstanceEvE9singleton) #22
  resume { ptr, i32 } %common.resume.op

10:                                               ; preds = %7
  %11 = landingpad { ptr, i32 }
          cleanup
  br label %common.resume

_ZN6open3d12_GLOBAL__N_123GlobalColorMapSingleton11GetInstanceEv.exit: ; preds = %4, %5, %8
  %12 = tail call noalias noundef nonnull dereferenceable(8) ptr @_Znwm(i64 noundef 8) #24
  store ptr getelementptr inbounds nuw inrange(-16, 24) (i8, ptr @_ZTVN6open3d13visualization12ColorMapGrayE, i64 16), ptr %12, align 8, !tbaa !28
  tail call void @_ZNSt12__shared_ptrIKN6open3d13visualization8ColorMapELN9__gnu_cxx12_Lock_policyE2EE5resetINS1_12ColorMapGrayEEENSt9enable_ifIXsr21__sp_is_constructibleIS3_T_EE5valueEvE4typeEPSA_(ptr noundef nonnull align 8 dereferenceable(16) @_ZZN6open3d12_GLOBAL__N_123GlobalColorMapSingleton11GetInstanceEvE9singleton, ptr noundef nonnull %12)
  br label %50

13:                                               ; preds = %1
  br i1 %3, label %14, label %_ZN6open3d12_GLOBAL__N_123GlobalColorMapSingleton11GetInstanceEv.exit3, !prof !18

14:                                               ; preds = %13
  %15 = tail call i32 @__cxa_guard_acquire(ptr nonnull @_ZGVZN6open3d12_GLOBAL__N_123GlobalColorMapSingleton11GetInstanceEvE9singleton) #22
  %.not.i2 = icmp eq i32 %15, 0
  br i1 %.not.i2, label %_ZN6open3d12_GLOBAL__N_123GlobalColorMapSingleton11GetInstanceEv.exit3, label %16

16:                                               ; preds = %14
  invoke fastcc void @_ZN6open3d12_GLOBAL__N_123GlobalColorMapSingletonC2Ev()
          to label %17 unwind label %19

17:                                               ; preds = %16
  %18 = tail call i32 @__cxa_atexit(ptr nonnull @_ZN6open3d12_GLOBAL__N_123GlobalColorMapSingletonD2Ev, ptr nonnull @_ZZN6open3d12_GLOBAL__N_123GlobalColorMapSingleton11GetInstanceEvE9singleton, ptr nonnull @__dso_handle) #22
  tail call void @__cxa_guard_release(ptr nonnull @_ZGVZN6open3d12_GLOBAL__N_123GlobalColorMapSingleton11GetInstanceEvE9singleton) #22
  br label %_ZN6open3d12_GLOBAL__N_123GlobalColorMapSingleton11GetInstanceEv.exit3

19:                                               ; preds = %16
  %20 = landingpad { ptr, i32 }
          cleanup
  br label %common.resume

_ZN6open3d12_GLOBAL__N_123GlobalColorMapSingleton11GetInstanceEv.exit3: ; preds = %13, %14, %17
  %21 = tail call noalias noundef nonnull dereferenceable(8) ptr @_Znwm(i64 noundef 8) #24
  store ptr getelementptr inbounds nuw inrange(-16, 24) (i8, ptr @_ZTVN6open3d13visualization14ColorMapSummerE, i64 16), ptr %21, align 8, !tbaa !28
  tail call void @_ZNSt12__shared_ptrIKN6open3d13visualization8ColorMapELN9__gnu_cxx12_Lock_policyE2EE5resetINS1_14ColorMapSummerEEENSt9enable_ifIXsr21__sp_is_constructibleIS3_T_EE5valueEvE4typeEPSA_(ptr noundef nonnull align 8 dereferenceable(16) @_ZZN6open3d12_GLOBAL__N_123GlobalColorMapSingleton11GetInstanceEvE9singleton, ptr noundef nonnull %21)
  br label %50

22:                                               ; preds = %1
  br i1 %3, label %23, label %_ZN6open3d12_GLOBAL__N_123GlobalColorMapSingleton11GetInstanceEv.exit5, !prof !18

23:                                               ; preds = %22
  %24 = tail call i32 @__cxa_guard_acquire(ptr nonnull @_ZGVZN6open3d12_GLOBAL__N_123GlobalColorMapSingleton11GetInstanceEvE9singleton) #22
  %.not.i4 = icmp eq i32 %24, 0
  br i1 %.not.i4, label %_ZN6open3d12_GLOBAL__N_123GlobalColorMapSingleton11GetInstanceEv.exit5, label %25

25:                                               ; preds = %23
  invoke fastcc void @_ZN6open3d12_GLOBAL__N_123GlobalColorMapSingletonC2Ev()
          to label %26 unwind label %28

26:                                               ; preds = %25
  %27 = tail call i32 @__cxa_atexit(ptr nonnull @_ZN6open3d12_GLOBAL__N_123GlobalColorMapSingletonD2Ev, ptr nonnull @_ZZN6open3d12_GLOBAL__N_123GlobalColorMapSingleton11GetInstanceEvE9singleton, ptr nonnull @__dso_handle) #22
  tail call void @__cxa_guard_release(ptr nonnull @_ZGVZN6open3d12_GLOBAL__N_123GlobalColorMapSingleton11GetInstanceEvE9singleton) #22
  br label %_ZN6open3d12_GLOBAL__N_123GlobalColorMapSingleton11GetInstanceEv.exit5

28:                                               ; preds = %25
  %29 = landingpad { ptr, i32 }
          cleanup
  br label %common.resume

_ZN6open3d12_GLOBAL__N_123GlobalColorMapSingleton11GetInstanceEv.exit5: ; preds = %22, %23, %26
  %30 = tail call noalias noundef nonnull dereferenceable(8) ptr @_Znwm(i64 noundef 8) #24
  store ptr getelementptr inbounds nuw inrange(-16, 24) (i8, ptr @_ZTVN6open3d13visualization14ColorMapWinterE, i64 16), ptr %30, align 8, !tbaa !28
  tail call void @_ZNSt12__shared_ptrIKN6open3d13visualization8ColorMapELN9__gnu_cxx12_Lock_policyE2EE5resetINS1_14ColorMapWinterEEENSt9enable_ifIXsr21__sp_is_constructibleIS3_T_EE5valueEvE4typeEPSA_(ptr noundef nonnull align 8 dereferenceable(16) @_ZZN6open3d12_GLOBAL__N_123GlobalColorMapSingleton11GetInstanceEvE9singleton, ptr noundef nonnull %30)
  br label %50

31:                                               ; preds = %1
  br i1 %3, label %32, label %_ZN6open3d12_GLOBAL__N_123GlobalColorMapSingleton11GetInstanceEv.exit7, !prof !18

32:                                               ; preds = %31
  %33 = tail call i32 @__cxa_guard_acquire(ptr nonnull @_ZGVZN6open3d12_GLOBAL__N_123GlobalColorMapSingleton11GetInstanceEvE9singleton) #22
  %.not.i6 = icmp eq i32 %33, 0
  br i1 %.not.i6, label %_ZN6open3d12_GLOBAL__N_123GlobalColorMapSingleton11GetInstanceEv.exit7, label %34

34:                                               ; preds = %32
  invoke fastcc void @_ZN6open3d12_GLOBAL__N_123GlobalColorMapSingletonC2Ev()
          to label %35 unwind label %37

35:                                               ; preds = %34
  %36 = tail call i32 @__cxa_atexit(ptr nonnull @_ZN6open3d12_GLOBAL__N_123GlobalColorMapSingletonD2Ev, ptr nonnull @_ZZN6open3d12_GLOBAL__N_123GlobalColorMapSingleton11GetInstanceEvE9singleton, ptr nonnull @__dso_handle) #22
  tail call void @__cxa_guard_release(ptr nonnull @_ZGVZN6open3d12_GLOBAL__N_123GlobalColorMapSingleton11GetInstanceEvE9singleton) #22
  br label %_ZN6open3d12_GLOBAL__N_123GlobalColorMapSingleton11GetInstanceEv.exit7

37:                                               ; preds = %34
  %38 = landingpad { ptr, i32 }
          cleanup
  br label %common.resume

_ZN6open3d12_GLOBAL__N_123GlobalColorMapSingleton11GetInstanceEv.exit7: ; preds = %31, %32, %35
  %39 = tail call noalias noundef nonnull dereferenceable(8) ptr @_Znwm(i64 noundef 8) #24
  store ptr getelementptr inbounds nuw inrange(-16, 24) (i8, ptr @_ZTVN6open3d13visualization11ColorMapHotE, i64 16), ptr %39, align 8, !tbaa !28
  tail call void @_ZNSt12__shared_ptrIKN6open3d13visualization8ColorMapELN9__gnu_cxx12_Lock_policyE2EE5resetINS1_11ColorMapHotEEENSt9enable_ifIXsr21__sp_is_constructibleIS3_T_EE5valueEvE4typeEPSA_(ptr noundef nonnull align 8 dereferenceable(16) @_ZZN6open3d12_GLOBAL__N_123GlobalColorMapSingleton11GetInstanceEvE9singleton, ptr noundef nonnull %39)
  br label %50

40:                                               ; preds = %1
  br i1 %3, label %41, label %48, !prof !18

41:                                               ; preds = %40
  %42 = tail call i32 @__cxa_guard_acquire(ptr nonnull @_ZGVZN6open3d12_GLOBAL__N_123GlobalColorMapSingleton11GetInstanceEvE9singleton) #22
  %.not.i8 = icmp eq i32 %42, 0
  br i1 %.not.i8, label %48, label %43

43:                                               ; preds = %41
  invoke fastcc void @_ZN6open3d12_GLOBAL__N_123GlobalColorMapSingletonC2Ev()
          to label %44 unwind label %46

44:                                               ; preds = %43
  %45 = tail call i32 @__cxa_atexit(ptr nonnull @_ZN6open3d12_GLOBAL__N_123GlobalColorMapSingletonD2Ev, ptr nonnull @_ZZN6open3d12_GLOBAL__N_123GlobalColorMapSingleton11GetInstanceEvE9singleton, ptr nonnull @__dso_handle) #22
  tail call void @__cxa_guard_release(ptr nonnull @_ZGVZN6open3d12_GLOBAL__N_123GlobalColorMapSingleton11GetInstanceEvE9singleton) #22
  br label %48

46:                                               ; preds = %43
  %47 = landingpad { ptr, i32 }
          cleanup
  br label %common.resume

48:                                               ; preds = %44, %41, %40
  %49 = tail call noalias noundef nonnull dereferenceable(8) ptr @_Znwm(i64 noundef 8) #24
  store ptr getelementptr inbounds nuw inrange(-16, 24) (i8, ptr @_ZTVN6open3d13visualization11ColorMapJetE, i64 16), ptr %49, align 8, !tbaa !28
  tail call void @_ZNSt12__shared_ptrIKN6open3d13visualization8ColorMapELN9__gnu_cxx12_Lock_policyE2EE5resetINS1_11ColorMapJetEEENSt9enable_ifIXsr21__sp_is_constructibleIS3_T_EE5valueEvE4typeEPSA_(ptr noundef nonnull align 8 dereferenceable(16) @_ZZN6open3d12_GLOBAL__N_123GlobalColorMapSingleton11GetInstanceEvE9singleton, ptr noundef nonnull %49)
  br label %50

50:                                               ; preds = %48, %_ZN6open3d12_GLOBAL__N_123GlobalColorMapSingleton11GetInstanceEv.exit7, %_ZN6open3d12_GLOBAL__N_123GlobalColorMapSingleton11GetInstanceEv.exit5, %_ZN6open3d12_GLOBAL__N_123GlobalColorMapSingleton11GetInstanceEv.exit3, %_ZN6open3d12_GLOBAL__N_123GlobalColorMapSingleton11GetInstanceEv.exit
  ret void
}